target datalayout = "e-m:e-p270:32:32-p271:32:32-p272:64:64-i64:64-i128:128-f80:128-n8:16:32:64-S128"
target triple = "x86_64-pc-linux-gnu"

%"struct.Imf_3_4::Slice" = type <{ i32, [4 x i8], ptr, i64, i64, i32, i32, double, i8, i8, [6 x i8] }>

; Function Attrs: mustprogress nounwind uwtable
define void @_ZN7Imf_3_45SliceC2ENS_9PixelTypeEPcmmiidbb(ptr noundef nonnull align 8 dereferenceable(50) %0, i32 noundef %1, ptr noundef %2, i64 noundef %3, i64 noundef %4, i32 noundef %5, i32 noundef %6, double noundef %7, i1 noundef zeroext %8, i1 noundef zeroext %9) unnamed_addr #4 align 2 {
  %11 = alloca ptr, align 8
  %12 = alloca i32, align 4
  %13 = alloca ptr, align 8
  %14 = alloca i64, align 8
  %15 = alloca i64, align 8
  %16 = alloca i32, align 4
  %17 = alloca i32, align 4
  %18 = alloca double, align 8
  %19 = alloca i8, align 1
  %20 = alloca i8, align 1
  store ptr %0, ptr %11, align 8, !tbaa !3
  store i32 %1, ptr %12, align 4, !tbaa !8
  store ptr %2, ptr %13, align 8, !tbaa !10
  store i64 %3, ptr %14, align 8, !tbaa !12
  store i64 %4, ptr %15, align 8, !tbaa !12
  store i32 %5, ptr %16, align 4, !tbaa !14
  store i32 %6, ptr %17, align 4, !tbaa !14
  store double %7, ptr %18, align 8, !tbaa !16
  %21 = zext i1 %8 to i8
  store i8 %21, ptr %19, align 1, !tbaa !18
  %22 = zext i1 %9 to i8
  store i8 %22, ptr %20, align 1, !tbaa !18
  %23 = load ptr, ptr %11, align 8
  %24 = getelementptr inbounds nuw %"struct.Imf_3_4::Slice", ptr %23, i32 0, i32 0
  %25 = load i32, ptr %12, align 4, !tbaa !8
  store i32 %25, ptr %24, align 8, !tbaa !20
  %26 = getelementptr inbounds nuw %"struct.Imf_3_4::Slice", ptr %23, i32 0, i32 2
  %27 = load ptr, ptr %13, align 8, !tbaa !10
  store ptr %27, ptr %26, align 8, !tbaa !22
  %28 = getelementptr inbounds nuw %"struct.Imf_3_4::Slice", ptr %23, i32 0, i32 3
  %29 = load i64, ptr %14, align 8, !tbaa !12
  store i64 %29, ptr %28, align 8, !tbaa !23
  %30 = getelementptr inbounds nuw %"struct.Imf_3_4::Slice", ptr %23, i32 0, i32 4
  %31 = load i64, ptr %15, align 8, !tbaa !12
  store i64 %31, ptr %30, align 8, !tbaa !24
  %32 = getelementptr inbounds nuw %"struct.Imf_3_4::Slice", ptr %23, i32 0, i32 5
  %33 = load i32, ptr %16, align 4, !tbaa !14
  store i32 %33, ptr %32, align 8, !tbaa !25
  %34 = getelementptr inbounds nuw %"struct.Imf_3_4::Slice", ptr %23, i32 0, i32 6
  %35 = load i32, ptr %17, align 4, !tbaa !14
  store i32 %35, ptr %34, align 4, !tbaa !26
  %36 = getelementptr inbounds nuw %"struct.Imf_3_4::Slice", ptr %23, i32 0, i32 7
  %37 = load double, ptr %18, align 8, !tbaa !16
  store double %37, ptr %36, align 8, !tbaa !27
  %38 = getelementptr inbounds nuw %"struct.Imf_3_4::Slice", ptr %23, i32 0, i32 8
  %39 = load i8, ptr %19, align 1, !tbaa !18, !range !28, !noundef !29
  %40 = trunc i8 %39 to i1
  %41 = zext i1 %40 to i8
  store i8 %41, ptr %38, align 8, !tbaa !30
  %42 = getelementptr inbounds nuw %"struct.Imf_3_4::Slice", ptr %23, i32 0, i32 9
  %43 = load i8, ptr %20, align 1, !tbaa !18, !range !28, !noundef !29
  %44 = trunc i8 %43 to i1
  %45 = zext i1 %44 to i8
  store i8 %45, ptr %42, align 1, !tbaa !31
  ret void
}