; Function Attrs: mustprogress nofree norecurse nosync nounwind willreturn memory(argmem: write) uwtable
define void @_ZN7Imf_3_45SliceC2ENS_9PixelTypeEPcmmiidbb(ptr noundef nonnull writeonly align 8 captures(none) dereferenceable(50) initializes((0, 4), (8, 50)) %0, i32 noundef %1, ptr noundef %2, i64 noundef %3, i64 noundef %4, i32 noundef %5, i32 noundef %6, double noundef %7, i1 noundef zeroext %8, i1 noundef zeroext %9) unnamed_addr #3 align 2 {
  %11 = zext i1 %8 to i8
  %12 = zext i1 %9 to i8
  store i32 %1, ptr %0, align 8, !tbaa !3
  %13 = getelementptr inbounds nuw i8, ptr %0, i64 8
  store ptr %2, ptr %13, align 8, !tbaa !14
  %14 = getelementptr inbounds nuw i8, ptr %0, i64 16
  store i64 %3, ptr %14, align 8, !tbaa !15
  %15 = getelementptr inbounds nuw i8, ptr %0, i64 24
  store i64 %4, ptr %15, align 8, !tbaa !16
  %16 = getelementptr inbounds nuw i8, ptr %0, i64 32
  store i32 %5, ptr %16, align 8, !tbaa !17
  %17 = getelementptr inbounds nuw i8, ptr %0, i64 36
  store i32 %6, ptr %17, align 4, !tbaa !18
  %18 = getelementptr inbounds nuw i8, ptr %0, i64 40
  store double %7, ptr %18, align 8, !tbaa !19
  %19 = getelementptr inbounds nuw i8, ptr %0, i64 48
  store i8 %11, ptr %19, align 8, !tbaa !20
  %20 = getelementptr inbounds nuw i8, ptr %0, i64 49
  store i8 %12, ptr %20, align 1, !tbaa !21
  ret void
}